target datalayout = "e-m:e-p270:32:32-p271:32:32-p272:64:64-i64:64-i128:128-f80:128-n8:16:32:64-S128"
target triple = "x86_64-pc-linux-gnu"

%struct.unit_conversion = type { [4 x i8], i32, double }

; Function Attrs: nounwind uwtable
define internal void @convert_int_from_base_unit(i64 noundef %0, i32 noundef %1, ptr noundef %2, ptr noundef %3) #0 {
  %5 = alloca i64, align 8
  %6 = alloca i32, align 4
  %7 = alloca ptr, align 8
  %8 = alloca ptr, align 8
  %9 = alloca ptr, align 8
  %10 = alloca i32, align 4
  store i64 %0, ptr %5, align 8
  store i32 %1, ptr %6, align 4
  store ptr %2, ptr %7, align 8
  store ptr %3, ptr %8, align 8
  call void @llvm.lifetime.start.p0(i64 8, ptr %9) #16
  call void @llvm.lifetime.start.p0(i64 4, ptr %10) #16
  %11 = load ptr, ptr %8, align 8
  store ptr null, ptr %11, align 8
  %12 = load i32, ptr %6, align 4
  %13 = and i32 %12, 251658240
  %14 = icmp ne i32 %13, 0
  br i1 %14, label %15, label %16

15:                                               ; preds = %4
  store ptr @memory_unit_conversion_table, ptr %9, align 8
  br label %17

16:                                               ; preds = %4
  store ptr @time_unit_conversion_table, ptr %9, align 8
  br label %17

17:                                               ; preds = %16, %15
  store i32 0, ptr %10, align 4
  br label %18

18:                                               ; preds = %77, %17
  %19 = load ptr, ptr %9, align 8
  %20 = load i32, ptr %10, align 4
  %21 = sext i32 %20 to i64
  %22 = getelementptr inbounds %struct.unit_conversion, ptr %19, i64 %21
  %23 = getelementptr inbounds nuw %struct.unit_conversion, ptr %22, i32 0, i32 0
  %24 = getelementptr inbounds [4 x i8], ptr %23, i64 0, i64 0
  %25 = load i8, ptr %24, align 8
  %26 = icmp ne i8 %25, 0
  br i1 %26, label %27, label %80

27:                                               ; preds = %18
  %28 = load i32, ptr %6, align 4
  %29 = load ptr, ptr %9, align 8
  %30 = load i32, ptr %10, align 4
  %31 = sext i32 %30 to i64
  %32 = getelementptr inbounds %struct.unit_conversion, ptr %29, i64 %31
  %33 = getelementptr inbounds nuw %struct.unit_conversion, ptr %32, i32 0, i32 1
  %34 = load i32, ptr %33, align 4
  %35 = icmp eq i32 %28, %34
  br i1 %35, label %36, label %76

36:                                               ; preds = %27
  %37 = load ptr, ptr %9, align 8
  %38 = load i32, ptr %10, align 4
  %39 = sext i32 %38 to i64
  %40 = getelementptr inbounds %struct.unit_conversion, ptr %37, i64 %39
  %41 = getelementptr inbounds nuw %struct.unit_conversion, ptr %40, i32 0, i32 2
  %42 = load double, ptr %41, align 8
  %43 = fcmp ole double %42, 1.000000e+00
  br i1 %43, label %55, label %44

44:                                               ; preds = %36
  %45 = load i64, ptr %5, align 8
  %46 = load ptr, ptr %9, align 8
  %47 = load i32, ptr %10, align 4
  %48 = sext i32 %47 to i64
  %49 = getelementptr inbounds %struct.unit_conversion, ptr %46, i64 %48
  %50 = getelementptr inbounds nuw %struct.unit_conversion, ptr %49, i32 0, i32 2
  %51 = load double, ptr %50, align 8
  %52 = fptosi double %51 to i64
  %53 = srem i64 %45, %52
  %54 = icmp eq i64 %53, 0
  br i1 %54, label %55, label %75

55:                                               ; preds = %44, %36
  %56 = load i64, ptr %5, align 8
  %57 = sitofp i64 %56 to double
  %58 = load ptr, ptr %9, align 8
  %59 = load i32, ptr %10, align 4
  %60 = sext i32 %59 to i64
  %61 = getelementptr inbounds %struct.unit_conversion, ptr %58, i64 %60
  %62 = getelementptr inbounds nuw %struct.unit_conversion, ptr %61, i32 0, i32 2
  %63 = load double, ptr %62, align 8
  %64 = fdiv double %57, %63
  %65 = call double @llvm.rint.f64(double %64)
  %66 = fptosi double %65 to i64
  %67 = load ptr, ptr %7, align 8
  store i64 %66, ptr %67, align 8
  %68 = load ptr, ptr %9, align 8
  %69 = load i32, ptr %10, align 4
  %70 = sext i32 %69 to i64
  %71 = getelementptr inbounds %struct.unit_conversion, ptr %68, i64 %70
  %72 = getelementptr inbounds nuw %struct.unit_conversion, ptr %71, i32 0, i32 0
  %73 = getelementptr inbounds [4 x i8], ptr %72, i64 0, i64 0
  %74 = load ptr, ptr %8, align 8
  store ptr %73, ptr %74, align 8
  br label %80

75:                                               ; preds = %44
  br label %76

76:                                               ; preds = %75, %27
  br label %77

77:                                               ; preds = %76
  %78 = load i32, ptr %10, align 4
  %79 = add i32 %78, 1
  store i32 %79, ptr %10, align 4
  br label %18, !llvm.loop !57

80:                                               ; preds = %55, %18
  call void @llvm.lifetime.end.p0(i64 4, ptr %10) #16
  call void @llvm.lifetime.end.p0(i64 8, ptr %9) #16
  ret void
}