; Function Attrs: nofree norecurse nosync nounwind memory(argmem: write) uwtable
define internal fastcc void @convert_int_from_base_unit(i64 noundef range(i64 1, -9223372036854775808) %0, i32 noundef range(i32 1, 2130706433) %1, ptr noundef nonnull writeonly captures(none) %2, ptr noundef nonnull writeonly captures(none) initializes((0, 8)) %3) unnamed_addr #20 {
  store ptr null, ptr %3, align 8
  %5 = and i32 %1, 251658240
  %.not = icmp eq i32 %5, 0
  %time_unit_conversion_table.memory_unit_conversion_table = select i1 %.not, ptr @time_unit_conversion_table, ptr @memory_unit_conversion_table
  %6 = load i8, ptr %time_unit_conversion_table.memory_unit_conversion_table, align 16
  %.not2124 = icmp eq i8 %6, 0
  br i1 %.not2124, label %.loopexit, label %.lr.ph

.lr.ph:                                           ; preds = %4, %24
  %7 = phi ptr [ %27, %24 ], [ %time_unit_conversion_table.memory_unit_conversion_table, %4 ]
  %.025 = phi i32 [ %25, %24 ], [ 0, %4 ]
  %8 = getelementptr inbounds nuw i8, ptr %7, i64 4
  %9 = load i32, ptr %8, align 4
  %10 = icmp eq i32 %1, %9
  br i1 %10, label %11, label %24

11:                                               ; preds = %.lr.ph
  %12 = getelementptr inbounds nuw i8, ptr %7, i64 8
  %13 = load double, ptr %12, align 8
  %14 = fcmp ugt double %13, 1.000000e+00
  br i1 %14, label %15, label %19

15:                                               ; preds = %11
  %16 = fptosi double %13 to i64
  %17 = srem i64 %0, %16
  %18 = icmp eq i64 %17, 0
  br i1 %18, label %19, label %24

19:                                               ; preds = %15, %11
  %20 = uitofp nneg i64 %0 to double
  %21 = fdiv double %20, %13
  %22 = tail call double @llvm.rint.f64(double %21)
  %23 = fptosi double %22 to i64
  store i64 %23, ptr %2, align 8
  store ptr %7, ptr %3, align 8
  br label %.loopexit

24:                                               ; preds = %.lr.ph, %15
  %25 = add i32 %.025, 1
  %26 = sext i32 %25 to i64
  %27 = getelementptr inbounds %struct.unit_conversion, ptr %time_unit_conversion_table.memory_unit_conversion_table, i64 %26
  %28 = load i8, ptr %27, align 16
  %.not21 = icmp eq i8 %28, 0
  br i1 %.not21, label %.loopexit, label %.lr.ph, !llvm.loop !53

.loopexit:                                        ; preds = %24, %4, %19
  ret void
}